; Function Attrs: nounwind uwtable
define ptr @l_Lake_LeanOption_asCliArg(ptr noundef %0) local_unnamed_addr #1 {
  %2 = getelementptr inbounds nuw i8, ptr %0, i64 8
  %3 = load ptr, ptr %2, align 8, !tbaa !10
  %4 = ptrtoint ptr %3 to i64
  %5 = and i64 %4, 1
  %.not = icmp eq i64 %5, 0
  br i1 %.not, label %6, label %lean_inc.exit21

6:                                                ; preds = %1
  %.val.i = load i32, ptr %3, align 4, !tbaa !4
  %7 = icmp sgt i32 %.val.i, 0
  br i1 %7, label %8, label %10, !prof !9

8:                                                ; preds = %6
  %9 = add nuw i32 %.val.i, 1
  store i32 %9, ptr %3, align 4, !tbaa !4
  br label %lean_inc.exit21

10:                                               ; preds = %6
  %.not.i26 = icmp eq i32 %.val.i, 0
  br i1 %.not.i26, label %lean_inc.exit21, label %11

11:                                               ; preds = %10
  tail call void @lean_inc_ref_cold(ptr noundef nonnull %3) #8
  br label %lean_inc.exit21

lean_inc.exit21:                                  ; preds = %11, %10, %8, %1
  %12 = load ptr, ptr @l_Lake_LeanOption_asCliArg___closed__1, align 8, !tbaa !10
  %13 = tail call ptr @l_Lean_Name_toString(ptr noundef %3, i8 noundef zeroext 1, ptr noundef %12) #8
  %14 = load ptr, ptr @l_Lake_LeanOption_asCliArg___closed__2, align 8, !tbaa !10
  %15 = tail call ptr @lean_string_append(ptr noundef %14, ptr noundef %13) #8
  %16 = ptrtoint ptr %13 to i64
  %17 = and i64 %16, 1
  %.not30 = icmp eq i64 %17, 0
  br i1 %.not30, label %18, label %lean_dec.exit20

18:                                               ; preds = %lean_inc.exit21
  %19 = load i32, ptr %13, align 4, !tbaa !4
  %20 = icmp sgt i32 %19, 1
  br i1 %20, label %21, label %23, !prof !9

21:                                               ; preds = %18
  %22 = add nsw i32 %19, -1
  store i32 %22, ptr %13, align 4, !tbaa !4
  br label %lean_dec.exit20

23:                                               ; preds = %18
  %.not.i = icmp eq i32 %19, 0
  br i1 %.not.i, label %lean_dec.exit20, label %24

24:                                               ; preds = %23
  tail call void @lean_dec_ref_cold(ptr noundef nonnull %13) #8
  br label %lean_dec.exit20

lean_dec.exit20:                                  ; preds = %24, %23, %21, %lean_inc.exit21
  %25 = load ptr, ptr @l_Lake_LeanOption_asCliArg___closed__3, align 8, !tbaa !10
  %26 = tail call ptr @lean_string_append(ptr noundef %15, ptr noundef %25) #8
  %27 = getelementptr inbounds nuw i8, ptr %0, i64 16
  %28 = load ptr, ptr %27, align 8, !tbaa !10
  %29 = ptrtoint ptr %28 to i64
  %30 = and i64 %29, 1
  %.not31 = icmp eq i64 %30, 0
  br i1 %.not31, label %31, label %lean_inc.exit

31:                                               ; preds = %lean_dec.exit20
  %.val.i27 = load i32, ptr %28, align 4, !tbaa !4
  %32 = icmp sgt i32 %.val.i27, 0
  br i1 %32, label %33, label %35, !prof !9

33:                                               ; preds = %31
  %34 = add nuw i32 %.val.i27, 1
  store i32 %34, ptr %28, align 4, !tbaa !4
  br label %lean_inc.exit

35:                                               ; preds = %31
  %.not.i28 = icmp eq i32 %.val.i27, 0
  br i1 %.not.i28, label %lean_inc.exit, label %36

36:                                               ; preds = %35
  tail call void @lean_inc_ref_cold(ptr noundef nonnull %28) #8
  br label %lean_inc.exit

lean_inc.exit:                                    ; preds = %36, %35, %33, %lean_dec.exit20
  %37 = ptrtoint ptr %0 to i64
  %38 = and i64 %37, 1
  %.not32 = icmp eq i64 %38, 0
  br i1 %.not32, label %39, label %lean_dec.exit19

39:                                               ; preds = %lean_inc.exit
  %40 = load i32, ptr %0, align 4, !tbaa !4
  %41 = icmp sgt i32 %40, 1
  br i1 %41, label %42, label %44, !prof !9

42:                                               ; preds = %39
  %43 = add nsw i32 %40, -1
  store i32 %43, ptr %0, align 4, !tbaa !4
  br label %lean_dec.exit19

44:                                               ; preds = %39
  %.not.i22 = icmp eq i32 %40, 0
  br i1 %.not.i22, label %lean_dec.exit19, label %45

45:                                               ; preds = %44
  tail call void @lean_dec_ref_cold(ptr noundef nonnull %0) #8
  br label %lean_dec.exit19

lean_dec.exit19:                                  ; preds = %45, %44, %42, %lean_inc.exit
  %46 = tail call ptr @l_Lean_LeanOptionValue_asCliFlagValue(ptr noundef %28) #8
  %47 = tail call ptr @lean_string_append(ptr noundef %26, ptr noundef %46) #8
  %48 = ptrtoint ptr %46 to i64
  %49 = and i64 %48, 1
  %.not33 = icmp eq i64 %49, 0
  br i1 %.not33, label %50, label %lean_dec.exit

50:                                               ; preds = %lean_dec.exit19
  %51 = load i32, ptr %46, align 4, !tbaa !4
  %52 = icmp sgt i32 %51, 1
  br i1 %52, label %53, label %55, !prof !9

53:                                               ; preds = %50
  %54 = add nsw i32 %51, -1
  store i32 %54, ptr %46, align 4, !tbaa !4
  br label %lean_dec.exit

55:                                               ; preds = %50
  %.not.i24 = icmp eq i32 %51, 0
  br i1 %.not.i24, label %lean_dec.exit, label %56

56:                                               ; preds = %55
  tail call void @lean_dec_ref_cold(ptr noundef nonnull %46) #8
  br label %lean_dec.exit

lean_dec.exit:                                    ; preds = %56, %55, %53, %lean_dec.exit19
  %57 = load ptr, ptr @l_Lake_instInhabitedLeanOption___closed__1, align 8, !tbaa !10
  %58 = tail call ptr @lean_string_append(ptr noundef %47, ptr noundef %57) #8
  ret ptr %58
}